target datalayout = "e-m:e-p270:32:32-p271:32:32-p272:64:64-i64:64-i128:128-f80:128-n8:16:32:64-S128"
target triple = "x86_64-unknown-linux-gnu"

@_ZN19OpenColorIO_v2_4devL13V1_2_FWD_NAMEE = internal constant [9 x i8] c"v1.2_Fwd\00", align 1
@_ZN19OpenColorIO_v2_4devL17V1_2_FWD_CLF_NAMEE = internal constant [4 x i8] c"Fwd\00", align 1
@_ZN19OpenColorIO_v2_4devL13V1_2_REV_NAMEE = internal constant [9 x i8] c"v1.2_Rev\00", align 1
@_ZN19OpenColorIO_v2_4devL17V1_2_REV_CLF_NAMEE = internal constant [4 x i8] c"Rev\00", align 1
@_ZN19OpenColorIO_v2_4devL17NO_CLAMP_FWD_NAMEE = internal constant [11 x i8] c"noClampFwd\00", align 1
@_ZN19OpenColorIO_v2_4devL21NO_CLAMP_FWD_CLF_NAMEE = internal constant [11 x i8] c"FwdNoClamp\00", align 1
@_ZN19OpenColorIO_v2_4devL17NO_CLAMP_REV_NAMEE = internal constant [11 x i8] c"noClampRev\00", align 1
@_ZN19OpenColorIO_v2_4devL21NO_CLAMP_REV_CLF_NAMEE = internal constant [11 x i8] c"RevNoClamp\00", align 1
@.str = private unnamed_addr constant [23 x i8] c"Unknown style for CDL.\00", align 1
@_ZTIN19OpenColorIO_v2_4dev9ExceptionE = external constant ptr

; Function Attrs: mustprogress uwtable
define hidden noundef i32 @_ZN19OpenColorIO_v2_4dev9CDLOpData8GetStyleEPKc(ptr noundef %name) #4 align 2 personality ptr @__gxx_personality_v0 {
entry:
  %retval = alloca i32, align 4
  %name.addr = alloca ptr, align 8
  %exn.slot = alloca ptr, align 8
  %ehselector.slot = alloca i32, align 4
  store ptr %name, ptr %name.addr, align 8
  %0 = load ptr, ptr %name.addr, align 8
  %tobool = icmp ne ptr %0, null
  br i1 %tobool, label %land.lhs.true, label %if.end31

land.lhs.true:                                    ; preds = %entry
  %1 = load ptr, ptr %name.addr, align 8
  %2 = load i8, ptr %1, align 1
  %tobool1 = icmp ne i8 %2, 0
  br i1 %tobool1, label %if.then, label %if.end31

if.then:                                          ; preds = %land.lhs.true
  %3 = load ptr, ptr %name.addr, align 8
  %call = call noundef i32 @_ZN19OpenColorIO_v2_4dev8Platform10StrcasecmpEPKcS2_(ptr noundef %3, ptr noundef @_ZN19OpenColorIO_v2_4devL13V1_2_FWD_NAMEE)
  %cmp = icmp eq i32 0, %call
  br i1 %cmp, label %if.then2, label %if.end

if.then2:                                         ; preds = %if.then
  store i32 0, ptr %retval, align 4
  br label %return

if.end:                                           ; preds = %if.then
  %4 = load ptr, ptr %name.addr, align 8
  %call3 = call noundef i32 @_ZN19OpenColorIO_v2_4dev8Platform10StrcasecmpEPKcS2_(ptr noundef %4, ptr noundef @_ZN19OpenColorIO_v2_4devL17V1_2_FWD_CLF_NAMEE)
  %cmp4 = icmp eq i32 0, %call3
  br i1 %cmp4, label %if.then5, label %if.end6

if.then5:                                         ; preds = %if.end
  store i32 0, ptr %retval, align 4
  br label %return

if.end6:                                          ; preds = %if.end
  %5 = load ptr, ptr %name.addr, align 8
  %call7 = call noundef i32 @_ZN19OpenColorIO_v2_4dev8Platform10StrcasecmpEPKcS2_(ptr noundef %5, ptr noundef @_ZN19OpenColorIO_v2_4devL13V1_2_REV_NAMEE)
  %cmp8 = icmp eq i32 0, %call7
  br i1 %cmp8, label %if.then9, label %if.end10

if.then9:                                         ; preds = %if.end6
  store i32 1, ptr %retval, align 4
  br label %return

if.end10:                                         ; preds = %if.end6
  %6 = load ptr, ptr %name.addr, align 8
  %call11 = call noundef i32 @_ZN19OpenColorIO_v2_4dev8Platform10StrcasecmpEPKcS2_(ptr noundef %6, ptr noundef @_ZN19OpenColorIO_v2_4devL17V1_2_REV_CLF_NAMEE)
  %cmp12 = icmp eq i32 0, %call11
  br i1 %cmp12, label %if.then13, label %if.end14

if.then13:                                        ; preds = %if.end10
  store i32 1, ptr %retval, align 4
  br label %return

if.end14:                                         ; preds = %if.end10
  %7 = load ptr, ptr %name.addr, align 8
  %call15 = call noundef i32 @_ZN19OpenColorIO_v2_4dev8Platform10StrcasecmpEPKcS2_(ptr noundef %7, ptr noundef @_ZN19OpenColorIO_v2_4devL17NO_CLAMP_FWD_NAMEE)
  %cmp16 = icmp eq i32 0, %call15
  br i1 %cmp16, label %if.then17, label %if.end18

if.then17:                                        ; preds = %if.end14
  store i32 2, ptr %retval, align 4
  br label %return

if.end18:                                         ; preds = %if.end14
  %8 = load ptr, ptr %name.addr, align 8
  %call19 = call noundef i32 @_ZN19OpenColorIO_v2_4dev8Platform10StrcasecmpEPKcS2_(ptr noundef %8, ptr noundef @_ZN19OpenColorIO_v2_4devL21NO_CLAMP_FWD_CLF_NAMEE)
  %cmp20 = icmp eq i32 0, %call19
  br i1 %cmp20, label %if.then21, label %if.end22

if.then21:                                        ; preds = %if.end18
  store i32 2, ptr %retval, align 4
  br label %return

if.end22:                                         ; preds = %if.end18
  %9 = load ptr, ptr %name.addr, align 8
  %call23 = call noundef i32 @_ZN19OpenColorIO_v2_4dev8Platform10StrcasecmpEPKcS2_(ptr noundef %9, ptr noundef @_ZN19OpenColorIO_v2_4devL17NO_CLAMP_REV_NAMEE)
  %cmp24 = icmp eq i32 0, %call23
  br i1 %cmp24, label %if.then25, label %if.end26

if.then25:                                        ; preds = %if.end22
  store i32 3, ptr %retval, align 4
  br label %return

if.end26:                                         ; preds = %if.end22
  %10 = load ptr, ptr %name.addr, align 8
  %call27 = call noundef i32 @_ZN19OpenColorIO_v2_4dev8Platform10StrcasecmpEPKcS2_(ptr noundef %10, ptr noundef @_ZN19OpenColorIO_v2_4devL21NO_CLAMP_REV_CLF_NAMEE)
  %cmp28 = icmp eq i32 0, %call27
  br i1 %cmp28, label %if.then29, label %if.end30

if.then29:                                        ; preds = %if.end26
  store i32 3, ptr %retval, align 4
  br label %return

if.end30:                                         ; preds = %if.end26
  br label %if.end31

if.end31:                                         ; preds = %if.end30, %land.lhs.true, %entry
  %exception = call ptr @__cxa_allocate_exception(i64 16) #3
  invoke void @_ZN19OpenColorIO_v2_4dev9ExceptionC1EPKc(ptr noundef nonnull align 8 dereferenceable(16) %exception, ptr noundef @.str)
          to label %invoke.cont unwind label %lpad

invoke.cont:                                      ; preds = %if.end31
  call void @__cxa_throw(ptr %exception, ptr @_ZTIN19OpenColorIO_v2_4dev9ExceptionE, ptr @_ZN19OpenColorIO_v2_4dev9ExceptionD1Ev) #13
  unreachable

lpad:                                             ; preds = %if.end31
  %11 = landingpad { ptr, i32 }
          cleanup
  %12 = extractvalue { ptr, i32 } %11, 0
  store ptr %12, ptr %exn.slot, align 8
  %13 = extractvalue { ptr, i32 } %11, 1
  store i32 %13, ptr %ehselector.slot, align 4
  call void @__cxa_free_exception(ptr %exception) #3
  br label %eh.resume

return:                                           ; preds = %if.then29, %if.then25, %if.then21, %if.then17, %if.then13, %if.then9, %if.then5, %if.then2
  %14 = load i32, ptr %retval, align 4
  ret i32 %14

eh.resume:                                        ; preds = %lpad
  %exn = load ptr, ptr %exn.slot, align 8
  %sel = load i32, ptr %ehselector.slot, align 4
  %lpad.val = insertvalue { ptr, i32 } poison, ptr %exn, 0
  %lpad.val32 = insertvalue { ptr, i32 } %lpad.val, i32 %sel, 1
  resume { ptr, i32 } %lpad.val32
}