; Function Attrs: mustprogress uwtable
define hidden noundef i32 @_ZN19OpenColorIO_v2_4dev9CDLOpData8GetStyleEPKc(ptr noundef %name) local_unnamed_addr #3 align 2 personality ptr @__gxx_personality_v0 {
entry:
  %tobool.not = icmp eq ptr %name, null
  br i1 %tobool.not, label %if.end31, label %land.lhs.true

land.lhs.true:                                    ; preds = %entry
  %0 = load i8, ptr %name, align 1
  %tobool1.not = icmp eq i8 %0, 0
  br i1 %tobool1.not, label %if.end31, label %if.then

if.then:                                          ; preds = %land.lhs.true
  %call = tail call noundef i32 @_ZN19OpenColorIO_v2_4dev8Platform10StrcasecmpEPKcS2_(ptr noundef nonnull %name, ptr noundef nonnull @_ZN19OpenColorIO_v2_4devL13V1_2_FWD_NAMEE)
  %cmp = icmp eq i32 %call, 0
  br i1 %cmp, label %return, label %if.end

if.end:                                           ; preds = %if.then
  %call3 = tail call noundef i32 @_ZN19OpenColorIO_v2_4dev8Platform10StrcasecmpEPKcS2_(ptr noundef nonnull %name, ptr noundef nonnull @_ZN19OpenColorIO_v2_4devL17V1_2_FWD_CLF_NAMEE)
  %cmp4 = icmp eq i32 %call3, 0
  br i1 %cmp4, label %return, label %if.end6

if.end6:                                          ; preds = %if.end
  %call7 = tail call noundef i32 @_ZN19OpenColorIO_v2_4dev8Platform10StrcasecmpEPKcS2_(ptr noundef nonnull %name, ptr noundef nonnull @_ZN19OpenColorIO_v2_4devL13V1_2_REV_NAMEE)
  %cmp8 = icmp eq i32 %call7, 0
  br i1 %cmp8, label %return, label %if.end10

if.end10:                                         ; preds = %if.end6
  %call11 = tail call noundef i32 @_ZN19OpenColorIO_v2_4dev8Platform10StrcasecmpEPKcS2_(ptr noundef nonnull %name, ptr noundef nonnull @_ZN19OpenColorIO_v2_4devL17V1_2_REV_CLF_NAMEE)
  %cmp12 = icmp eq i32 %call11, 0
  br i1 %cmp12, label %return, label %if.end14

if.end14:                                         ; preds = %if.end10
  %call15 = tail call noundef i32 @_ZN19OpenColorIO_v2_4dev8Platform10StrcasecmpEPKcS2_(ptr noundef nonnull %name, ptr noundef nonnull @_ZN19OpenColorIO_v2_4devL17NO_CLAMP_FWD_NAMEE)
  %cmp16 = icmp eq i32 %call15, 0
  br i1 %cmp16, label %return, label %if.end18

if.end18:                                         ; preds = %if.end14
  %call19 = tail call noundef i32 @_ZN19OpenColorIO_v2_4dev8Platform10StrcasecmpEPKcS2_(ptr noundef nonnull %name, ptr noundef nonnull @_ZN19OpenColorIO_v2_4devL21NO_CLAMP_FWD_CLF_NAMEE)
  %cmp20 = icmp eq i32 %call19, 0
  br i1 %cmp20, label %return, label %if.end22

if.end22:                                         ; preds = %if.end18
  %call23 = tail call noundef i32 @_ZN19OpenColorIO_v2_4dev8Platform10StrcasecmpEPKcS2_(ptr noundef nonnull %name, ptr noundef nonnull @_ZN19OpenColorIO_v2_4devL17NO_CLAMP_REV_NAMEE)
  %cmp24 = icmp eq i32 %call23, 0
  br i1 %cmp24, label %return, label %if.end26

if.end26:                                         ; preds = %if.end22
  %call27 = tail call noundef i32 @_ZN19OpenColorIO_v2_4dev8Platform10StrcasecmpEPKcS2_(ptr noundef nonnull %name, ptr noundef nonnull @_ZN19OpenColorIO_v2_4devL21NO_CLAMP_REV_CLF_NAMEE)
  %cmp28 = icmp eq i32 %call27, 0
  br i1 %cmp28, label %return, label %if.end31

if.end31:                                         ; preds = %if.end26, %land.lhs.true, %entry
  %exception = tail call ptr @__cxa_allocate_exception(i64 16) #19
  invoke void @_ZN19OpenColorIO_v2_4dev9ExceptionC1EPKc(ptr noundef nonnull align 8 dereferenceable(16) %exception, ptr noundef nonnull @.str)
          to label %invoke.cont unwind label %lpad

invoke.cont:                                      ; preds = %if.end31
  tail call void @__cxa_throw(ptr nonnull %exception, ptr nonnull @_ZTIN19OpenColorIO_v2_4dev9ExceptionE, ptr nonnull @_ZN19OpenColorIO_v2_4dev9ExceptionD1Ev) #20
  unreachable

lpad:                                             ; preds = %if.end31
  %1 = landingpad { ptr, i32 }
          cleanup
  tail call void @__cxa_free_exception(ptr %exception) #19
  resume { ptr, i32 } %1

return:                                           ; preds = %if.end26, %if.end22, %if.end18, %if.end14, %if.end10, %if.end6, %if.end, %if.then
  %retval.0 = phi i32 [ 0, %if.then ], [ 0, %if.end ], [ 1, %if.end6 ], [ 1, %if.end10 ], [ 2, %if.end14 ], [ 2, %if.end18 ], [ 3, %if.end22 ], [ 3, %if.end26 ]
  ret i32 %retval.0
}